; Function Attrs: nounwind uwtable
define void @Gia_NodeCollect_rec(ptr noundef readonly captures(none) %0, ptr noundef %1, ptr noundef captures(none) %2) local_unnamed_addr #2 {
  %4 = getelementptr inbounds nuw i8, ptr %0, i64 616
  %5 = getelementptr i8, ptr %0, i64 32
  %6 = getelementptr inbounds nuw i8, ptr %0, i64 176
  %7 = load ptr, ptr %4, align 8
  %.val.i26 = load ptr, ptr %5, align 8
  %8 = ptrtoint ptr %1 to i64
  %9 = ptrtoint ptr %.val.i26 to i64
  %10 = sub i64 %8, %9
  %11 = sdiv exact i64 %10, 12
  %sext.i27 = shl i64 %11, 32
  %12 = ashr exact i64 %sext.i27, 30
  %13 = getelementptr inbounds i8, ptr %7, i64 %12
  %14 = load i32, ptr %13, align 4
  %15 = load i32, ptr %6, align 8
  %.not28 = icmp eq i32 %14, %15
  br i1 %.not28, label %.loopexit, label %.lr.ph

.lr.ph:                                           ; preds = %3
  %16 = getelementptr i8, ptr %0, i64 144
  br label %17

17:                                               ; preds = %.lr.ph, %tailrecurse
  %18 = phi i32 [ %15, %.lr.ph ], [ %78, %tailrecurse ]
  %19 = phi ptr [ %13, %.lr.ph ], [ %76, %tailrecurse ]
  %20 = phi i64 [ %8, %.lr.ph ], [ %71, %tailrecurse ]
  %.tr2429 = phi ptr [ %1, %.lr.ph ], [ %69, %tailrecurse ]
  store i32 %18, ptr %19, align 4
  %.val19 = load ptr, ptr %5, align 8
  %.val20 = load ptr, ptr %16, align 8
  %21 = ptrtoint ptr %.val19 to i64
  %22 = sub i64 %20, %21
  %23 = sdiv exact i64 %22, 12
  %sext.i23 = shl i64 %23, 32
  %24 = ashr exact i64 %sext.i23, 30
  %25 = getelementptr inbounds i8, ptr %.val20, i64 %24
  %26 = load i32, ptr %25, align 4
  %.not16 = icmp eq i32 %26, 0
  br i1 %.not16, label %27, label %29

27:                                               ; preds = %17
  %.val18 = load i64, ptr %.tr2429, align 4
  %28 = and i64 %.val18, 2684354559
  %narrow.i.not = icmp eq i64 %28, 2684354559
  br i1 %narrow.i.not, label %29, label %tailrecurse

29:                                               ; preds = %27, %17
  %30 = trunc i64 %23 to i32
  %31 = getelementptr inbounds nuw i8, ptr %2, i64 4
  %32 = load i32, ptr %31, align 4
  %33 = load i32, ptr %2, align 8
  %34 = icmp eq i32 %32, %33
  br i1 %34, label %35, label %.Vec_IntGrow.exit10_crit_edge.i

.Vec_IntGrow.exit10_crit_edge.i:                  ; preds = %29
  %.phi.trans.insert.i = getelementptr inbounds nuw i8, ptr %2, i64 8
  %.pre.i = load ptr, ptr %.phi.trans.insert.i, align 8
  br label %Vec_IntPush.exit

35:                                               ; preds = %29
  %36 = icmp slt i32 %32, 16
  br i1 %36, label %37, label %45

37:                                               ; preds = %35
  %38 = getelementptr inbounds nuw i8, ptr %2, i64 8
  %39 = load ptr, ptr %38, align 8
  %.not9.i.i = icmp eq ptr %39, null
  br i1 %.not9.i.i, label %42, label %40

40:                                               ; preds = %37
  %41 = tail call dereferenceable_or_null(64) ptr @realloc(ptr noundef nonnull %39, i64 noundef 64) #39
  br label %Vec_IntGrow.exit.i

42:                                               ; preds = %37
  %43 = tail call noalias dereferenceable_or_null(64) ptr @malloc(i64 noundef 64) #40
  br label %Vec_IntGrow.exit.i

Vec_IntGrow.exit.i:                               ; preds = %42, %40
  %44 = phi ptr [ %41, %40 ], [ %43, %42 ]
  store ptr %44, ptr %38, align 8
  store i32 16, ptr %2, align 8
  br label %Vec_IntPush.exit

45:                                               ; preds = %35
  %46 = shl nuw nsw i32 %32, 1
  %47 = getelementptr inbounds nuw i8, ptr %2, i64 8
  %48 = load ptr, ptr %47, align 8
  %.not9.i9.i = icmp eq ptr %48, null
  %49 = zext nneg i32 %46 to i64
  %50 = shl nuw nsw i64 %49, 2
  br i1 %.not9.i9.i, label %53, label %51

51:                                               ; preds = %45
  %52 = tail call ptr @realloc(ptr noundef nonnull %48, i64 noundef %50) #39
  br label %55

53:                                               ; preds = %45
  %54 = tail call noalias ptr @malloc(i64 noundef %50) #40
  br label %55

55:                                               ; preds = %53, %51
  %56 = phi ptr [ %52, %51 ], [ %54, %53 ]
  store ptr %56, ptr %47, align 8
  store i32 %46, ptr %2, align 8
  br label %Vec_IntPush.exit

Vec_IntPush.exit:                                 ; preds = %.Vec_IntGrow.exit10_crit_edge.i, %Vec_IntGrow.exit.i, %55
  %57 = phi ptr [ %.pre.i, %.Vec_IntGrow.exit10_crit_edge.i ], [ %56, %55 ], [ %44, %Vec_IntGrow.exit.i ]
  %58 = load i32, ptr %31, align 4
  %59 = add nsw i32 %58, 1
  store i32 %59, ptr %31, align 4
  %60 = sext i32 %58 to i64
  %61 = getelementptr inbounds i32, ptr %57, i64 %60
  store i32 %30, ptr %61, align 4
  br label %.loopexit

tailrecurse:                                      ; preds = %27
  %62 = and i64 %.val18, 536870911
  %63 = sub nsw i64 0, %62
  %64 = getelementptr inbounds %struct.Gia_Obj_t_, ptr %.tr2429, i64 %63
  tail call void @Gia_NodeCollect_rec(ptr noundef nonnull %0, ptr noundef nonnull %64, ptr noundef %2)
  %65 = load i64, ptr %.tr2429, align 4
  %66 = lshr i64 %65, 32
  %67 = and i64 %66, 536870911
  %68 = sub nsw i64 0, %67
  %69 = getelementptr inbounds %struct.Gia_Obj_t_, ptr %.tr2429, i64 %68
  %70 = load ptr, ptr %4, align 8
  %.val.i = load ptr, ptr %5, align 8
  %71 = ptrtoint ptr %69 to i64
  %72 = ptrtoint ptr %.val.i to i64
  %73 = sub i64 %71, %72
  %74 = sdiv exact i64 %73, 12
  %sext.i = shl i64 %74, 32
  %75 = ashr exact i64 %sext.i, 30
  %76 = getelementptr inbounds i8, ptr %70, i64 %75
  %77 = load i32, ptr %76, align 4
  %78 = load i32, ptr %6, align 8
  %.not = icmp eq i32 %77, %78
  br i1 %.not, label %.loopexit, label %17

.loopexit:                                        ; preds = %tailrecurse, %3, %Vec_IntPush.exit
  ret void
}